target datalayout = "e-m:e-p270:32:32-p271:32:32-p272:64:64-i64:64-i128:128-f80:128-n8:16:32:64-S128"
target triple = "x86_64-pc-linux-gnu"

%struct.___itt_global = type { [8 x i8], i64, i64, i64, i64, i64, i64, %union.pthread_mutex_t, ptr, ptr, ptr, ptr, ptr, ptr, ptr, ptr, i32, ptr, i32, ptr, ptr }
%union.pthread_mutex_t = type { %struct.__pthread_mutex_s }
%struct.__pthread_mutex_s = type { i32, i32, i32, i32, i32, i16, i16, %struct.__pthread_internal_list }
%struct.__pthread_internal_list = type { ptr, ptr }

@__itt_frame_end_ptr__3_0 = global ptr @_ZL24__itt_frame_end_init_3_0P13__itt_frame_t, align 8

; Function Attrs: mustprogress sspstrong uwtable
define internal void @_ZL24__itt_frame_end_init_3_0P13__itt_frame_t(ptr noundef %0) #0 {
  %2 = alloca ptr, align 8
  store ptr %0, ptr %2, align 8, !tbaa !53
  %3 = load volatile i64, ptr getelementptr inbounds nuw (%struct.___itt_global, ptr @__itt__ittapi_global, i32 0, i32 4), align 8, !tbaa !3
  %4 = icmp ne i64 %3, 0
  br i1 %4, label %9, label %5

5:                                                ; preds = %1
  %6 = load ptr, ptr getelementptr inbounds nuw (%struct.___itt_global, ptr @__itt__ittapi_global, i32 0, i32 13), align 8, !tbaa !21
  %7 = icmp eq ptr %6, null
  br i1 %7, label %8, label %9

8:                                                ; preds = %5
  call void @ITT_DoOneTimeInitialization()
  br label %9

9:                                                ; preds = %8, %5, %1
  %10 = load ptr, ptr @__itt_frame_end_ptr__3_0, align 8, !tbaa !22
  %11 = icmp ne ptr %10, null
  br i1 %11, label %12, label %18

12:                                               ; preds = %9
  %13 = load ptr, ptr @__itt_frame_end_ptr__3_0, align 8, !tbaa !22
  %14 = icmp ne ptr %13, @_ZL24__itt_frame_end_init_3_0P13__itt_frame_t
  br i1 %14, label %15, label %18

15:                                               ; preds = %12
  %16 = load ptr, ptr @__itt_frame_end_ptr__3_0, align 8, !tbaa !22
  %17 = load ptr, ptr %2, align 8, !tbaa !53
  call void %16(ptr noundef %17)
  br label %19

18:                                               ; preds = %12, %9
  br label %19

19:                                               ; preds = %18, %15
  ret void
}